; Function Attrs: nounwind uwtable
define internal void @_WriteData(ptr noundef readonly captures(none) %0, ptr noundef %1, i64 noundef %2) #0 {
  %4 = getelementptr inbounds nuw i8, ptr %0, i64 592
  %5 = load ptr, ptr %4, align 8
  %6 = getelementptr inbounds nuw i8, ptr %5, i64 8
  %7 = load ptr, ptr %6, align 8
  %8 = tail call ptr @__errno_location() #16
  store i32 0, ptr %8, align 4
  %.not = icmp eq i64 %2, 0
  br i1 %.not, label %21, label %9

9:                                                ; preds = %3
  %10 = getelementptr inbounds nuw i8, ptr %7, i64 24
  %11 = load ptr, ptr %10, align 8
  %12 = tail call zeroext i1 %11(ptr noundef %1, i64 noundef %2, ptr noundef %7) #14
  br i1 %12, label %21, label %13

13:                                               ; preds = %9
  %14 = load i32, ptr %8, align 4
  %15 = icmp eq i32 %14, 0
  br i1 %15, label %16, label %17

16:                                               ; preds = %13
  store i32 28, ptr %8, align 4
  br label %17

17:                                               ; preds = %13, %16
  %18 = getelementptr inbounds nuw i8, ptr %7, i64 64
  %19 = load ptr, ptr %18, align 8
  %20 = tail call ptr %19(ptr noundef nonnull %7) #14
  tail call void (i32, i32, ptr, ...) @pg_log_generic(i32 noundef 4, i32 noundef 0, ptr noundef nonnull @.str.17, ptr noundef %20) #14
  tail call void @exit_nicely(i32 noundef 1) #15
  unreachable

21:                                               ; preds = %9, %3
  ret void
}